target datalayout = "e-m:e-p270:32:32-p271:32:32-p272:64:64-i64:64-i128:128-f80:128-n8:16:32:64-S128"
target triple = "x86_64-pc-linux-gnu"

%struct.t_commrec = type <{ i32, i32, i32, i32, ptr, ptr, i32, [4 x i8], ptr, i32, i32, %struct.gmx_nodecomm_t, %"class.std::unique_ptr.2", ptr, i32, [4 x i8] }>
%struct.gmx_nodecomm_t = type { i8, ptr, i32, ptr }
%"class.std::unique_ptr.2" = type { %"struct.std::__uniq_ptr_data.3" }
%"struct.std::__uniq_ptr_data.3" = type { %"class.std::__uniq_ptr_impl.4" }
%"class.std::__uniq_ptr_impl.4" = type { %"class.std::tuple.5" }
%"class.std::tuple.5" = type { %"struct.std::_Tuple_impl.6" }
%"struct.std::_Tuple_impl.6" = type { %"struct.std::_Head_base.9" }
%"struct.std::_Head_base.9" = type { ptr }

@TMPI_FLOAT = external constant ptr, align 8

; Function Attrs: mustprogress nounwind uwtable
define linkonce_odr noundef nonnull align 8 dereferenceable(8) ptr @_ZSt3minImERKT_S2_S2_(ptr noundef nonnull align 8 dereferenceable(8) %0, ptr noundef nonnull align 8 dereferenceable(8) %1) #2 comdat {
  %3 = alloca ptr, align 8
  %4 = alloca ptr, align 8
  %5 = alloca ptr, align 8
  store ptr %0, ptr %4, align 8
  store ptr %1, ptr %5, align 8
  %6 = load ptr, ptr %5, align 8
  %7 = load i64, ptr %6, align 8
  %8 = load ptr, ptr %4, align 8
  %9 = load i64, ptr %8, align 8
  %10 = icmp ult i64 %7, %9
  br i1 %10, label %11, label %13

11:                                               ; preds = %2
  %12 = load ptr, ptr %5, align 8
  store ptr %12, ptr %3, align 8
  br label %15

13:                                               ; preds = %2
  %14 = load ptr, ptr %4, align 8
  store ptr %14, ptr %3, align 8
  br label %15

15:                                               ; preds = %13, %11
  %16 = load ptr, ptr %3, align 8
  ret ptr %16
}

; Function Attrs: mustprogress uwtable
define void @_Z8gmx_sumfmPfPK9t_commrec(i64 noundef %0, ptr noundef %1, ptr noundef %2) #0 {
  %4 = alloca i64, align 8
  %5 = alloca ptr, align 8
  %6 = alloca ptr, align 8
  %7 = alloca i64, align 8
  %8 = alloca i64, align 8
  %9 = alloca i64, align 8
  %10 = alloca i64, align 8
  %11 = alloca i64, align 8
  %12 = alloca i64, align 8
  %13 = alloca i64, align 8
  %14 = alloca i64, align 8
  %15 = alloca i64, align 8
  %16 = alloca i64, align 8
  %17 = alloca i64, align 8
  %18 = alloca i64, align 8
  %19 = alloca i64, align 8
  store i64 %0, ptr %4, align 8
  store ptr %1, ptr %5, align 8
  store ptr %2, ptr %6, align 8
  %20 = load ptr, ptr %6, align 8
  %21 = getelementptr inbounds %struct.t_commrec, ptr %20, i32 0, i32 6
  %22 = load i32, ptr %21, align 8
  %23 = icmp eq i32 %22, 1
  br i1 %23, label %24, label %25

24:                                               ; preds = %3
  br label %151

25:                                               ; preds = %3
  store i64 2147483647, ptr %7, align 8
  %26 = load ptr, ptr %6, align 8
  %27 = getelementptr inbounds %struct.t_commrec, ptr %26, i32 0, i32 11
  %28 = getelementptr inbounds %struct.gmx_nodecomm_t, ptr %27, i32 0, i32 0
  %29 = load i8, ptr %28, align 8
  %30 = trunc i8 %29 to i1
  br i1 %30, label %31, label %126

31:                                               ; preds = %25
  %32 = load ptr, ptr %6, align 8
  %33 = getelementptr inbounds %struct.t_commrec, ptr %32, i32 0, i32 11
  %34 = getelementptr inbounds %struct.gmx_nodecomm_t, ptr %33, i32 0, i32 2
  %35 = load i32, ptr %34, align 8
  %36 = icmp eq i32 %35, 0
  br i1 %36, label %37, label %74

37:                                               ; preds = %31
  store i64 0, ptr %8, align 8
  %38 = load i64, ptr %4, align 8
  store i64 %38, ptr %9, align 8
  br label %39

39:                                               ; preds = %42, %37
  %40 = load i64, ptr %9, align 8
  %41 = icmp ugt i64 %40, 0
  br i1 %41, label %42, label %73

42:                                               ; preds = %39
  %43 = call noundef nonnull align 8 dereferenceable(8) ptr @_ZSt3minImERKT_S2_S2_(ptr noundef nonnull align 8 dereferenceable(8) %9, ptr noundef nonnull align 8 dereferenceable(8) %7)
  %44 = load i64, ptr %43, align 8
  store i64 %44, ptr %10, align 8
  %45 = load ptr, ptr %5, align 8
  %46 = load i64, ptr %8, align 8
  %47 = getelementptr inbounds float, ptr %45, i64 %46
  %48 = load i64, ptr %10, align 8
  %49 = trunc i64 %48 to i32
  %50 = load ptr, ptr @TMPI_FLOAT, align 8
  %51 = load ptr, ptr %6, align 8
  %52 = getelementptr inbounds %struct.t_commrec, ptr %51, i32 0, i32 11
  %53 = getelementptr inbounds %struct.gmx_nodecomm_t, ptr %52, i32 0, i32 1
  %54 = load ptr, ptr %53, align 8
  %55 = call noundef i32 @_Z11tMPI_ReducePvS_iP14tmpi_datatype_7tMPI_OpiP10tmpi_comm_(ptr noundef null, ptr noundef %47, i32 noundef %49, ptr noundef %50, i32 noundef 2, i32 noundef 0, ptr noundef %54)
  %56 = load ptr, ptr %5, align 8
  %57 = load i64, ptr %8, align 8
  %58 = getelementptr inbounds float, ptr %56, i64 %57
  %59 = load i64, ptr %10, align 8
  %60 = trunc i64 %59 to i32
  %61 = load ptr, ptr @TMPI_FLOAT, align 8
  %62 = load ptr, ptr %6, align 8
  %63 = getelementptr inbounds %struct.t_commrec, ptr %62, i32 0, i32 11
  %64 = getelementptr inbounds %struct.gmx_nodecomm_t, ptr %63, i32 0, i32 3
  %65 = load ptr, ptr %64, align 8
  %66 = call noundef i32 @_Z14tMPI_AllreducePvS_iP14tmpi_datatype_7tMPI_OpP10tmpi_comm_(ptr noundef null, ptr noundef %58, i32 noundef %60, ptr noundef %61, i32 noundef 2, ptr noundef %65)
  %67 = load i64, ptr %10, align 8
  %68 = load i64, ptr %8, align 8
  %69 = add i64 %68, %67
  store i64 %69, ptr %8, align 8
  %70 = load i64, ptr %10, align 8
  %71 = load i64, ptr %9, align 8
  %72 = sub i64 %71, %70
  store i64 %72, ptr %9, align 8
  br label %39, !llvm.loop !11

73:                                               ; preds = %39
  br label %100

74:                                               ; preds = %31
  store i64 0, ptr %11, align 8
  %75 = load i64, ptr %4, align 8
  store i64 %75, ptr %12, align 8
  br label %76

76:                                               ; preds = %79, %74
  %77 = load i64, ptr %12, align 8
  %78 = icmp ugt i64 %77, 0
  br i1 %78, label %79, label %99

79:                                               ; preds = %76
  %80 = call noundef nonnull align 8 dereferenceable(8) ptr @_ZSt3minImERKT_S2_S2_(ptr noundef nonnull align 8 dereferenceable(8) %12, ptr noundef nonnull align 8 dereferenceable(8) %7)
  %81 = load i64, ptr %80, align 8
  store i64 %81, ptr %13, align 8
  %82 = load ptr, ptr %5, align 8
  %83 = load i64, ptr %11, align 8
  %84 = getelementptr inbounds float, ptr %82, i64 %83
  %85 = load i64, ptr %13, align 8
  %86 = trunc i64 %85 to i32
  %87 = load ptr, ptr @TMPI_FLOAT, align 8
  %88 = load ptr, ptr %6, align 8
  %89 = getelementptr inbounds %struct.t_commrec, ptr %88, i32 0, i32 11
  %90 = getelementptr inbounds %struct.gmx_nodecomm_t, ptr %89, i32 0, i32 1
  %91 = load ptr, ptr %90, align 8
  %92 = call noundef i32 @_Z11tMPI_ReducePvS_iP14tmpi_datatype_7tMPI_OpiP10tmpi_comm_(ptr noundef %84, ptr noundef null, i32 noundef %86, ptr noundef %87, i32 noundef 2, i32 noundef 0, ptr noundef %91)
  %93 = load i64, ptr %13, align 8
  %94 = load i64, ptr %11, align 8
  %95 = add i64 %94, %93
  store i64 %95, ptr %11, align 8
  %96 = load i64, ptr %13, align 8
  %97 = load i64, ptr %12, align 8
  %98 = sub i64 %97, %96
  store i64 %98, ptr %12, align 8
  br label %76, !llvm.loop !12

99:                                               ; preds = %76
  br label %100

100:                                              ; preds = %99, %73
  store i64 0, ptr %14, align 8
  %101 = load i64, ptr %4, align 8
  store i64 %101, ptr %15, align 8
  br label %102

102:                                              ; preds = %105, %100
  %103 = load i64, ptr %15, align 8
  %104 = icmp ugt i64 %103, 0
  br i1 %104, label %105, label %125

105:                                              ; preds = %102
  %106 = call noundef nonnull align 8 dereferenceable(8) ptr @_ZSt3minImERKT_S2_S2_(ptr noundef nonnull align 8 dereferenceable(8) %15, ptr noundef nonnull align 8 dereferenceable(8) %7)
  %107 = load i64, ptr %106, align 8
  store i64 %107, ptr %16, align 8
  %108 = load ptr, ptr %5, align 8
  %109 = load i64, ptr %14, align 8
  %110 = getelementptr inbounds float, ptr %108, i64 %109
  %111 = load i64, ptr %16, align 8
  %112 = trunc i64 %111 to i32
  %113 = load ptr, ptr @TMPI_FLOAT, align 8
  %114 = load ptr, ptr %6, align 8
  %115 = getelementptr inbounds %struct.t_commrec, ptr %114, i32 0, i32 11
  %116 = getelementptr inbounds %struct.gmx_nodecomm_t, ptr %115, i32 0, i32 1
  %117 = load ptr, ptr %116, align 8
  %118 = call noundef i32 @_Z10tMPI_BcastPviP14tmpi_datatype_iP10tmpi_comm_(ptr noundef %110, i32 noundef %112, ptr noundef %113, i32 noundef 0, ptr noundef %117)
  %119 = load i64, ptr %16, align 8
  %120 = load i64, ptr %14, align 8
  %121 = add i64 %120, %119
  store i64 %121, ptr %14, align 8
  %122 = load i64, ptr %16, align 8
  %123 = load i64, ptr %15, align 8
  %124 = sub i64 %123, %122
  store i64 %124, ptr %15, align 8
  br label %102, !llvm.loop !13

125:                                              ; preds = %102
  br label %151

126:                                              ; preds = %25
  store i64 0, ptr %17, align 8
  %127 = load i64, ptr %4, align 8
  store i64 %127, ptr %18, align 8
  br label %128

128:                                              ; preds = %131, %126
  %129 = load i64, ptr %18, align 8
  %130 = icmp ugt i64 %129, 0
  br i1 %130, label %131, label %150

131:                                              ; preds = %128
  %132 = call noundef nonnull align 8 dereferenceable(8) ptr @_ZSt3minImERKT_S2_S2_(ptr noundef nonnull align 8 dereferenceable(8) %18, ptr noundef nonnull align 8 dereferenceable(8) %7)
  %133 = load i64, ptr %132, align 8
  store i64 %133, ptr %19, align 8
  %134 = load ptr, ptr %5, align 8
  %135 = load i64, ptr %17, align 8
  %136 = getelementptr inbounds float, ptr %134, i64 %135
  %137 = load i64, ptr %19, align 8
  %138 = trunc i64 %137 to i32
  %139 = load ptr, ptr @TMPI_FLOAT, align 8
  %140 = load ptr, ptr %6, align 8
  %141 = getelementptr inbounds %struct.t_commrec, ptr %140, i32 0, i32 5
  %142 = load ptr, ptr %141, align 8
  %143 = call noundef i32 @_Z14tMPI_AllreducePvS_iP14tmpi_datatype_7tMPI_OpP10tmpi_comm_(ptr noundef null, ptr noundef %136, i32 noundef %138, ptr noundef %139, i32 noundef 2, ptr noundef %142)
  %144 = load i64, ptr %19, align 8
  %145 = load i64, ptr %17, align 8
  %146 = add i64 %145, %144
  store i64 %146, ptr %17, align 8
  %147 = load i64, ptr %19, align 8
  %148 = load i64, ptr %18, align 8
  %149 = sub i64 %148, %147
  store i64 %149, ptr %18, align 8
  br label %128, !llvm.loop !14

150:                                              ; preds = %128
  br label %151

151:                                              ; preds = %150, %125, %24
  ret void
}